target datalayout = "e-m:e-p270:32:32-p271:32:32-p272:64:64-i64:64-i128:128-f80:128-n8:16:32:64-S128"
target triple = "x86_64-pc-linux-gnu"

%"class.llvm::ModuloSchedule" = type <{ ptr, %"class.std::vector", %"class.llvm::DenseMap", %"class.llvm::DenseMap", i32, [4 x i8] }>
%"class.std::vector" = type { %"struct.std::_Vector_base" }
%"struct.std::_Vector_base" = type { %"struct.std::_Vector_base<llvm::MachineInstr *, std::allocator<llvm::MachineInstr *>>::_Vector_impl" }
%"struct.std::_Vector_base<llvm::MachineInstr *, std::allocator<llvm::MachineInstr *>>::_Vector_impl" = type { %"struct.std::_Vector_base<llvm::MachineInstr *, std::allocator<llvm::MachineInstr *>>::_Vector_impl_data" }
%"struct.std::_Vector_base<llvm::MachineInstr *, std::allocator<llvm::MachineInstr *>>::_Vector_impl_data" = type { ptr, ptr, ptr }
%"class.llvm::DenseMap" = type <{ ptr, i32, i32, i32, [4 x i8] }>
%"class.std::unique_ptr" = type { %"struct.std::__uniq_ptr_data" }
%"struct.std::__uniq_ptr_data" = type { %"class.std::__uniq_ptr_impl" }
%"class.std::__uniq_ptr_impl" = type { %"class.std::tuple" }
%"class.std::tuple" = type { %"struct.std::_Tuple_impl" }
%"struct.std::_Tuple_impl" = type { %"struct.std::_Head_base.1" }
%"struct.std::_Head_base.1" = type { ptr }
%"class.llvm::ModuloScheduleExpanderMVE" = type <{ ptr, ptr, ptr, ptr, ptr, ptr, ptr, ptr, ptr, ptr, ptr, ptr, ptr, ptr, ptr, %"class.std::unique_ptr", i32, [4 x i8] }>

; Function Attrs: mustprogress nounwind uwtable
define linkonce_odr hidden noundef ptr @_ZNK4llvm14ModuloSchedule7getLoopEv(ptr noundef nonnull align 8 dereferenceable(84) %0) #1 comdat align 2 {
  %2 = alloca ptr, align 8
  store ptr %0, ptr %2, align 8
  %3 = load ptr, ptr %2, align 8
  %4 = getelementptr inbounds nuw %"class.llvm::ModuloSchedule", ptr %3, i32 0, i32 0
  %5 = load ptr, ptr %4, align 8
  ret ptr %5
}

; Function Attrs: mustprogress nounwind uwtable
define dso_local void @_ZN4llvm25ModuloScheduleExpanderMVE6expandEv(ptr noundef nonnull align 8 dereferenceable(132) %0) #1 align 2 {
  %2 = alloca ptr, align 8
  store ptr %0, ptr %2, align 8
  %3 = load ptr, ptr %2, align 8
  %4 = getelementptr inbounds nuw %"class.llvm::ModuloScheduleExpanderMVE", ptr %3, i32 0, i32 0
  %5 = load ptr, ptr %4, align 8
  %6 = call noundef ptr @_ZNK4llvm14ModuloSchedule7getLoopEv(ptr noundef nonnull align 8 dereferenceable(84) %5)
  %7 = call noundef ptr @_ZN4llvm11MachineLoop11getTopBlockEv(ptr noundef nonnull align 8 dereferenceable(152) %6)
  %8 = getelementptr inbounds nuw %"class.llvm::ModuloScheduleExpanderMVE", ptr %3, i32 0, i32 6
  store ptr %7, ptr %8, align 8
  %9 = getelementptr inbounds nuw %"class.llvm::ModuloScheduleExpanderMVE", ptr %3, i32 0, i32 0
  %10 = load ptr, ptr %9, align 8
  %11 = call noundef ptr @_ZNK4llvm14ModuloSchedule7getLoopEv(ptr noundef nonnull align 8 dereferenceable(84) %10)
  %12 = call noundef ptr @_ZNK4llvm8LoopBaseINS_17MachineBasicBlockENS_11MachineLoopEE16getLoopPreheaderEv(ptr noundef nonnull align 8 dereferenceable(152) %11)
  %13 = getelementptr inbounds nuw %"class.llvm::ModuloScheduleExpanderMVE", ptr %3, i32 0, i32 7
  store ptr %12, ptr %13, align 8
  %14 = getelementptr inbounds nuw %"class.llvm::ModuloScheduleExpanderMVE", ptr %3, i32 0, i32 0
  %15 = load ptr, ptr %14, align 8
  %16 = call noundef ptr @_ZNK4llvm14ModuloSchedule7getLoopEv(ptr noundef nonnull align 8 dereferenceable(84) %15)
  %17 = call noundef ptr @_ZNK4llvm8LoopBaseINS_17MachineBasicBlockENS_11MachineLoopEE12getExitBlockEv(ptr noundef nonnull align 8 dereferenceable(152) %16)
  %18 = getelementptr inbounds nuw %"class.llvm::ModuloScheduleExpanderMVE", ptr %3, i32 0, i32 8
  store ptr %17, ptr %18, align 8
  br label %19

19:                                               ; preds = %1
  br label %20

20:                                               ; preds = %19
  call void @_ZN4llvm25ModuloScheduleExpanderMVE21generatePipelinedLoopEv(ptr noundef nonnull align 8 dereferenceable(132) %3)
  ret void
}