; Function Attrs: mustprogress nounwind uwtable
define dso_local void @_ZN4llvm25ModuloScheduleExpanderMVE6expandEv(ptr nocapture noundef nonnull align 8 dereferenceable(132) %0) local_unnamed_addr #0 align 2 {
  %2 = load ptr, ptr %0, align 8
  %3 = load ptr, ptr %2, align 8
  %4 = tail call noundef ptr @_ZN4llvm11MachineLoop11getTopBlockEv(ptr noundef nonnull align 8 dereferenceable(152) %3) #18
  %5 = getelementptr inbounds nuw i8, ptr %0, i64 48
  store ptr %4, ptr %5, align 8
  %6 = load ptr, ptr %0, align 8
  %7 = load ptr, ptr %6, align 8
  %8 = tail call noundef ptr @_ZNK4llvm8LoopBaseINS_17MachineBasicBlockENS_11MachineLoopEE16getLoopPreheaderEv(ptr noundef nonnull align 8 dereferenceable(152) %7) #18
  %9 = getelementptr inbounds nuw i8, ptr %0, i64 56
  store ptr %8, ptr %9, align 8
  %10 = load ptr, ptr %0, align 8
  %11 = load ptr, ptr %10, align 8
  %12 = tail call noundef ptr @_ZNK4llvm8LoopBaseINS_17MachineBasicBlockENS_11MachineLoopEE12getExitBlockEv(ptr noundef nonnull align 8 dereferenceable(152) %11) #18
  %13 = getelementptr inbounds nuw i8, ptr %0, i64 64
  store ptr %12, ptr %13, align 8
  tail call void @_ZN4llvm25ModuloScheduleExpanderMVE21generatePipelinedLoopEv(ptr noundef nonnull align 8 dereferenceable(132) %0)
  ret void
}